target datalayout = "e-m:e-p270:32:32-p271:32:32-p272:64:64-i64:64-i128:128-f80:128-n8:16:32:64-S128"
target triple = "x86_64-pc-linux-gnu"

%struct.nameData = type { [64 x i8] }
%struct.TupleDescData = type { i32, i32, i32, i32, ptr, [0 x %struct.CompactAttribute] }
%struct.CompactAttribute = type { i32, i16, i8, i8, i8, i8, i8, i8, i8 }
%struct.List = type { i32, i32, i32, ptr, [0 x %union.ListCell] }
%union.ListCell = type { ptr }
%struct.String = type { i32, ptr }
%struct.FormData_pg_attribute = type { i32, %struct.nameData, i32, i16, i16, i32, i16, i8, i8, i8, i8, i8, i8, i8, i8, i8, i8, i8, i16, i32 }

@.str.1 = private unnamed_addr constant [10 x i8] c"funcapi.c\00", align 1
@.str.17 = private unnamed_addr constant [51 x i8] c"number of aliases does not match number of columns\00", align 1
@__func__.TypeGetTupleDesc = private unnamed_addr constant [17 x i8] c"TypeGetTupleDesc\00", align 1
@.str.18 = private unnamed_addr constant [29 x i8] c"no column alias was provided\00", align 1
@.str.19 = private unnamed_addr constant [66 x i8] c"could not determine row description for function returning record\00", align 1
@.str.20 = private unnamed_addr constant [45 x i8] c"function in FROM has unsupported return type\00", align 1

; Function Attrs: inlinehint nounwind uwtable
define internal ptr @list_nth_cell(ptr noundef %0, i32 noundef %1) #4 {
  %3 = alloca ptr, align 8
  %4 = alloca i32, align 4
  store ptr %0, ptr %3, align 8
  store i32 %1, ptr %4, align 4
  %5 = load ptr, ptr %3, align 8
  %6 = getelementptr inbounds nuw %struct.List, ptr %5, i32 0, i32 3
  %7 = load ptr, ptr %6, align 8
  %8 = load i32, ptr %4, align 4
  %9 = sext i32 %8 to i64
  %10 = getelementptr inbounds %union.ListCell, ptr %7, i64 %9
  ret ptr %10
}

; Function Attrs: inlinehint nounwind uwtable
define internal ptr @TupleDescAttr(ptr noundef %0, i32 noundef %1) #4 {
  %3 = alloca ptr, align 8
  %4 = alloca i32, align 4
  %5 = alloca ptr, align 8
  store ptr %0, ptr %3, align 8
  store i32 %1, ptr %4, align 4
  call void @llvm.lifetime.start.p0(i64 8, ptr %5) #7
  %6 = load ptr, ptr %3, align 8
  %7 = load ptr, ptr %3, align 8
  %8 = getelementptr inbounds nuw %struct.TupleDescData, ptr %7, i32 0, i32 0
  %9 = load i32, ptr %8, align 8
  %10 = sext i32 %9 to i64
  %11 = mul i64 %10, 16
  %12 = add i64 24, %11
  %13 = getelementptr inbounds nuw i8, ptr %6, i64 %12
  store ptr %13, ptr %5, align 8
  %14 = load ptr, ptr %5, align 8
  %15 = load i32, ptr %4, align 4
  %16 = sext i32 %15 to i64
  %17 = getelementptr inbounds %struct.FormData_pg_attribute, ptr %14, i64 %16
  call void @llvm.lifetime.end.p0(i64 8, ptr %5) #7
  ret ptr %17
}

; Function Attrs: inlinehint nounwind uwtable
define internal ptr @list_nth(ptr noundef %0, i32 noundef %1) #4 {
  %3 = alloca ptr, align 8
  %4 = alloca i32, align 4
  store ptr %0, ptr %3, align 8
  store i32 %1, ptr %4, align 4
  %5 = load ptr, ptr %3, align 8
  %6 = load i32, ptr %4, align 4
  %7 = call ptr @list_nth_cell(ptr noundef %5, i32 noundef %6)
  %8 = load ptr, ptr %7, align 8
  ret ptr %8
}

; Function Attrs: inlinehint nounwind uwtable
define internal i32 @list_length(ptr noundef %0) #4 {
  %2 = alloca ptr, align 8
  store ptr %0, ptr %2, align 8
  %3 = load ptr, ptr %2, align 8
  %4 = icmp ne ptr %3, null
  br i1 %4, label %5, label %9

5:                                                ; preds = %1
  %6 = load ptr, ptr %2, align 8
  %7 = getelementptr inbounds nuw %struct.List, ptr %6, i32 0, i32 1
  %8 = load i32, ptr %7, align 4
  br label %10

9:                                                ; preds = %1
  br label %10

10:                                               ; preds = %9, %5
  %11 = phi i32 [ %8, %5 ], [ 0, %9 ]
  ret i32 %11
}

; Function Attrs: nounwind uwtable
define internal i32 @get_type_func_class(i32 noundef %0, ptr noundef %1) #0 {
  %3 = alloca i32, align 4
  %4 = alloca i32, align 4
  %5 = alloca ptr, align 8
  store i32 %0, ptr %4, align 4
  store ptr %1, ptr %5, align 8
  %6 = load i32, ptr %4, align 4
  %7 = load ptr, ptr %5, align 8
  store i32 %6, ptr %7, align 4
  %8 = load i32, ptr %4, align 4
  %9 = call signext i8 @get_typtype(i32 noundef %8)
  %10 = sext i8 %9 to i32
  switch i32 %10, label %35 [
    i32 99, label %11
    i32 98, label %12
    i32 101, label %12
    i32 114, label %12
    i32 109, label %12
    i32 100, label %13
    i32 112, label %23
  ]

11:                                               ; preds = %2
  store i32 1, ptr %3, align 4
  br label %36

12:                                               ; preds = %2, %2, %2, %2
  store i32 0, ptr %3, align 4
  br label %36

13:                                               ; preds = %2
  %14 = load i32, ptr %4, align 4
  %15 = call i32 @getBaseType(i32 noundef %14)
  store i32 %15, ptr %4, align 4
  %16 = load ptr, ptr %5, align 8
  store i32 %15, ptr %16, align 4
  %17 = load i32, ptr %4, align 4
  %18 = call signext i8 @get_typtype(i32 noundef %17)
  %19 = sext i8 %18 to i32
  %20 = icmp eq i32 %19, 99
  br i1 %20, label %21, label %22

21:                                               ; preds = %13
  store i32 2, ptr %3, align 4
  br label %36

22:                                               ; preds = %13
  store i32 0, ptr %3, align 4
  br label %36

23:                                               ; preds = %2
  %24 = load i32, ptr %4, align 4
  %25 = icmp eq i32 %24, 2249
  br i1 %25, label %26, label %27

26:                                               ; preds = %23
  store i32 3, ptr %3, align 4
  br label %36

27:                                               ; preds = %23
  %28 = load i32, ptr %4, align 4
  %29 = icmp eq i32 %28, 2278
  br i1 %29, label %33, label %30

30:                                               ; preds = %27
  %31 = load i32, ptr %4, align 4
  %32 = icmp eq i32 %31, 2275
  br i1 %32, label %33, label %34

33:                                               ; preds = %30, %27
  store i32 0, ptr %3, align 4
  br label %36

34:                                               ; preds = %30
  store i32 4, ptr %3, align 4
  br label %36

35:                                               ; preds = %2
  store i32 4, ptr %3, align 4
  br label %36

36:                                               ; preds = %35, %34, %33, %26, %22, %21, %12, %11
  %37 = load i32, ptr %3, align 4
  ret i32 %37
}

; Function Attrs: nounwind uwtable
define dso_local ptr @TypeGetTupleDesc(i32 noundef %0, ptr noundef %1) #0 {
  %3 = alloca i32, align 4
  %4 = alloca ptr, align 8
  %5 = alloca i32, align 4
  %6 = alloca i32, align 4
  %7 = alloca ptr, align 8
  %8 = alloca i32, align 4
  %9 = alloca i32, align 4
  %10 = alloca ptr, align 8
  %11 = alloca ptr, align 8
  %12 = alloca ptr, align 8
  store i32 %0, ptr %3, align 4
  store ptr %1, ptr %4, align 8
  call void @llvm.lifetime.start.p0(i64 4, ptr %5) #7
  call void @llvm.lifetime.start.p0(i64 4, ptr %6) #7
  %13 = load i32, ptr %3, align 4
  %14 = call i32 @get_type_func_class(i32 noundef %13, ptr noundef %5)
  store i32 %14, ptr %6, align 4
  call void @llvm.lifetime.start.p0(i64 8, ptr %7) #7
  store ptr null, ptr %7, align 8
  %15 = load i32, ptr %6, align 4
  %16 = icmp eq i32 %15, 1
  br i1 %16, label %17, label %72

17:                                               ; preds = %2
  %18 = load i32, ptr %5, align 4
  %19 = call ptr @lookup_rowtype_tupdesc_copy(i32 noundef %18, i32 noundef -1)
  store ptr %19, ptr %7, align 8
  %20 = load ptr, ptr %4, align 8
  %21 = icmp ne ptr %20, null
  br i1 %21, label %22, label %71

22:                                               ; preds = %17
  call void @llvm.lifetime.start.p0(i64 4, ptr %8) #7
  %23 = load ptr, ptr %7, align 8
  %24 = getelementptr inbounds nuw %struct.TupleDescData, ptr %23, i32 0, i32 0
  %25 = load i32, ptr %24, align 8
  store i32 %25, ptr %8, align 4
  call void @llvm.lifetime.start.p0(i64 4, ptr %9) #7
  %26 = load ptr, ptr %4, align 8
  %27 = call i32 @list_length(ptr noundef %26)
  %28 = load i32, ptr %8, align 4
  %29 = icmp ne i32 %27, %28
  br i1 %29, label %30, label %42

30:                                               ; preds = %22
  br label %31

31:                                               ; preds = %30
  br i1 true, label %32, label %34

32:                                               ; preds = %31
  %33 = call zeroext i1 @errstart_cold(i32 noundef 21, ptr noundef null) #8
  br i1 %33, label %36, label %39

34:                                               ; preds = %31
  %35 = call zeroext i1 @errstart(i32 noundef 21, ptr noundef null)
  br i1 %35, label %36, label %39

36:                                               ; preds = %34, %32
  %37 = call i32 @errcode(i32 noundef 67141764)
  %38 = call i32 (ptr, ...) @errmsg(ptr noundef @.str.17)
  call void @errfinish(ptr noundef @.str.1, i32 noundef 1929, ptr noundef @__func__.TypeGetTupleDesc)
  br label %39

39:                                               ; preds = %36, %34, %32
  unreachable

40:                                               ; No predecessors!
  br label %41

41:                                               ; preds = %40
  br label %42

42:                                               ; preds = %41, %22
  store i32 0, ptr %9, align 4
  br label %43

43:                                               ; preds = %63, %42
  %44 = load i32, ptr %9, align 4
  %45 = load i32, ptr %8, align 4
  %46 = icmp slt i32 %44, %45
  br i1 %46, label %47, label %66

47:                                               ; preds = %43
  call void @llvm.lifetime.start.p0(i64 8, ptr %10) #7
  %48 = load ptr, ptr %4, align 8
  %49 = load i32, ptr %9, align 4
  %50 = call ptr @list_nth(ptr noundef %48, i32 noundef %49)
  %51 = getelementptr inbounds nuw %struct.String, ptr %50, i32 0, i32 1
  %52 = load ptr, ptr %51, align 8
  store ptr %52, ptr %10, align 8
  call void @llvm.lifetime.start.p0(i64 8, ptr %11) #7
  %53 = load ptr, ptr %7, align 8
  %54 = load i32, ptr %9, align 4
  %55 = call ptr @TupleDescAttr(ptr noundef %53, i32 noundef %54)
  store ptr %55, ptr %11, align 8
  %56 = load ptr, ptr %10, align 8
  %57 = icmp ne ptr %56, null
  br i1 %57, label %58, label %62

58:                                               ; preds = %47
  %59 = load ptr, ptr %11, align 8
  %60 = getelementptr inbounds nuw %struct.FormData_pg_attribute, ptr %59, i32 0, i32 1
  %61 = load ptr, ptr %10, align 8
  call void @namestrcpy(ptr noundef %60, ptr noundef %61)
  br label %62

62:                                               ; preds = %58, %47
  call void @llvm.lifetime.end.p0(i64 8, ptr %11) #7
  call void @llvm.lifetime.end.p0(i64 8, ptr %10) #7
  br label %63

63:                                               ; preds = %62
  %64 = load i32, ptr %9, align 4
  %65 = add i32 %64, 1
  store i32 %65, ptr %9, align 4
  br label %43, !llvm.loop !15

66:                                               ; preds = %43
  %67 = load ptr, ptr %7, align 8
  %68 = getelementptr inbounds nuw %struct.TupleDescData, ptr %67, i32 0, i32 1
  store i32 2249, ptr %68, align 4
  %69 = load ptr, ptr %7, align 8
  %70 = getelementptr inbounds nuw %struct.TupleDescData, ptr %69, i32 0, i32 2
  store i32 -1, ptr %70, align 8
  call void @llvm.lifetime.end.p0(i64 4, ptr %9) #7
  call void @llvm.lifetime.end.p0(i64 4, ptr %8) #7
  br label %71

71:                                               ; preds = %66, %17
  br label %144

72:                                               ; preds = %2
  %73 = load i32, ptr %6, align 4
  %74 = icmp eq i32 %73, 0
  br i1 %74, label %75, label %116

75:                                               ; preds = %72
  call void @llvm.lifetime.start.p0(i64 8, ptr %12) #7
  %76 = load ptr, ptr %4, align 8
  %77 = icmp eq ptr %76, null
  br i1 %77, label %78, label %90

78:                                               ; preds = %75
  br label %79

79:                                               ; preds = %78
  br i1 true, label %80, label %82

80:                                               ; preds = %79
  %81 = call zeroext i1 @errstart_cold(i32 noundef 21, ptr noundef null) #8
  br i1 %81, label %84, label %87

82:                                               ; preds = %79
  %83 = call zeroext i1 @errstart(i32 noundef 21, ptr noundef null)
  br i1 %83, label %84, label %87

84:                                               ; preds = %82, %80
  %85 = call i32 @errcode(i32 noundef 67141764)
  %86 = call i32 (ptr, ...) @errmsg(ptr noundef @.str.18)
  call void @errfinish(ptr noundef @.str.1, i32 noundef 1955, ptr noundef @__func__.TypeGetTupleDesc)
  br label %87

87:                                               ; preds = %84, %82, %80
  unreachable

88:                                               ; No predecessors!
  br label %89

89:                                               ; preds = %88
  br label %90

90:                                               ; preds = %89, %75
  %91 = load ptr, ptr %4, align 8
  %92 = call i32 @list_length(ptr noundef %91)
  %93 = icmp ne i32 %92, 1
  br i1 %93, label %94, label %106

94:                                               ; preds = %90
  br label %95

95:                                               ; preds = %94
  br i1 true, label %96, label %98

96:                                               ; preds = %95
  %97 = call zeroext i1 @errstart_cold(i32 noundef 21, ptr noundef null) #8
  br i1 %97, label %100, label %103

98:                                               ; preds = %95
  %99 = call zeroext i1 @errstart(i32 noundef 21, ptr noundef null)
  br i1 %99, label %100, label %103

100:                                              ; preds = %98, %96
  %101 = call i32 @errcode(i32 noundef 67141764)
  %102 = call i32 (ptr, ...) @errmsg(ptr noundef @.str.17)
  call void @errfinish(ptr noundef @.str.1, i32 noundef 1961, ptr noundef @__func__.TypeGetTupleDesc)
  br label %103

103:                                              ; preds = %100, %98, %96
  unreachable

104:                                              ; No predecessors!
  br label %105

105:                                              ; preds = %104
  br label %106

106:                                              ; preds = %105, %90
  %107 = load ptr, ptr %4, align 8
  %108 = call ptr @list_nth_cell(ptr noundef %107, i32 noundef 0)
  %109 = load ptr, ptr %108, align 8
  %110 = getelementptr inbounds nuw %struct.String, ptr %109, i32 0, i32 1
  %111 = load ptr, ptr %110, align 8
  store ptr %111, ptr %12, align 8
  %112 = call ptr @CreateTemplateTupleDesc(i32 noundef 1)
  store ptr %112, ptr %7, align 8
  %113 = load ptr, ptr %7, align 8
  %114 = load ptr, ptr %12, align 8
  %115 = load i32, ptr %3, align 4
  call void @TupleDescInitEntry(ptr noundef %113, i16 noundef signext 1, ptr noundef %114, i32 noundef %115, i32 noundef -1, i32 noundef 0)
  call void @llvm.lifetime.end.p0(i64 8, ptr %12) #7
  br label %143

116:                                              ; preds = %72
  %117 = load i32, ptr %6, align 4
  %118 = icmp eq i32 %117, 3
  br i1 %118, label %119, label %131

119:                                              ; preds = %116
  br label %120

120:                                              ; preds = %119
  br i1 true, label %121, label %123

121:                                              ; preds = %120
  %122 = call zeroext i1 @errstart_cold(i32 noundef 21, ptr noundef null) #8
  br i1 %122, label %125, label %128

123:                                              ; preds = %120
  %124 = call zeroext i1 @errstart(i32 noundef 21, ptr noundef null)
  br i1 %124, label %125, label %128

125:                                              ; preds = %123, %121
  %126 = call i32 @errcode(i32 noundef 67141764)
  %127 = call i32 (ptr, ...) @errmsg(ptr noundef @.str.19)
  call void @errfinish(ptr noundef @.str.1, i32 noundef 1979, ptr noundef @__func__.TypeGetTupleDesc)
  br label %128

128:                                              ; preds = %125, %123, %121
  unreachable

129:                                              ; No predecessors!
  br label %130

130:                                              ; preds = %129
  br label %142

131:                                              ; preds = %116
  br label %132

132:                                              ; preds = %131
  br i1 true, label %133, label %135

133:                                              ; preds = %132
  %134 = call zeroext i1 @errstart_cold(i32 noundef 21, ptr noundef null) #8
  br i1 %134, label %137, label %139

135:                                              ; preds = %132
  %136 = call zeroext i1 @errstart(i32 noundef 21, ptr noundef null)
  br i1 %136, label %137, label %139

137:                                              ; preds = %135, %133
  %138 = call i32 (ptr, ...) @errmsg_internal(ptr noundef @.str.20)
  call void @errfinish(ptr noundef @.str.1, i32 noundef 1984, ptr noundef @__func__.TypeGetTupleDesc)
  br label %139

139:                                              ; preds = %137, %135, %133
  unreachable

140:                                              ; No predecessors!
  br label %141

141:                                              ; preds = %140
  br label %142

142:                                              ; preds = %141, %130
  br label %143

143:                                              ; preds = %142, %106
  br label %144

144:                                              ; preds = %143, %71
  %145 = load ptr, ptr %7, align 8
  call void @llvm.lifetime.end.p0(i64 8, ptr %7) #7
  call void @llvm.lifetime.end.p0(i64 4, ptr %6) #7
  call void @llvm.lifetime.end.p0(i64 4, ptr %5) #7
  ret ptr %145
}