; Function Attrs: nounwind uwtable
define dso_local ptr @TypeGetTupleDesc(i32 noundef %0, ptr noundef readonly captures(address_is_null) %1) local_unnamed_addr #0 {
  %3 = tail call signext i8 @get_typtype(i32 noundef %0) #8
  switch i8 %3, label %select.unfold [
    i8 99, label %9
    i8 98, label %.fold.split.i
    i8 101, label %.fold.split.i
    i8 114, label %.fold.split.i
    i8 109, label %.fold.split.i
    i8 100, label %4
    i8 112, label %8
  ]

4:                                                ; preds = %2
  %5 = tail call i32 @getBaseType(i32 noundef %0) #8
  %6 = tail call signext i8 @get_typtype(i32 noundef %5) #8
  %7 = icmp eq i8 %6, 99
  br i1 %7, label %select.unfold, label %.fold.split.i

8:                                                ; preds = %2
  switch i32 %0, label %select.unfold [
    i32 2249, label %get_type_func_class.exit
    i32 2278, label %.fold.split.i
    i32 2275, label %.fold.split.i
  ]

9:                                                ; preds = %2
  %10 = tail call ptr @lookup_rowtype_tupdesc_copy(i32 noundef %0, i32 noundef -1) #8
  %.not31 = icmp eq ptr %1, null
  br i1 %.not31, label %55, label %list_length.exit

list_length.exit:                                 ; preds = %9
  %11 = load i32, ptr %10, align 8
  %12 = getelementptr inbounds nuw i8, ptr %1, i64 4
  %13 = load i32, ptr %12, align 4
  %.not32 = icmp eq i32 %13, %11
  br i1 %.not32, label %.preheader, label %16

.preheader:                                       ; preds = %list_length.exit
  %invariant.gep = getelementptr i8, ptr %10, i64 28
  %14 = icmp sgt i32 %11, 0
  br i1 %14, label %.lr.ph, label %._crit_edge

.lr.ph:                                           ; preds = %.preheader
  %15 = getelementptr i8, ptr %1, i64 16
  %wide.trip.count = zext nneg i32 %11 to i64
  br label %20

16:                                               ; preds = %list_length.exit
  %17 = tail call zeroext i1 @errstart_cold(i32 noundef 21, ptr noundef null) #9
  tail call void @llvm.assume(i1 %17)
  %18 = tail call i32 @errcode(i32 noundef 67141764) #8
  %19 = tail call i32 (ptr, ...) @errmsg(ptr noundef nonnull @.str.17) #8
  tail call void @errfinish(ptr noundef nonnull @.str.1, i32 noundef 1929, ptr noundef nonnull @__func__.TypeGetTupleDesc) #8
  unreachable

20:                                               ; preds = %.lr.ph, %30
  %indvars.iv = phi i64 [ 0, %.lr.ph ], [ %indvars.iv.next, %30 ]
  %.val34 = load ptr, ptr %15, align 8
  %21 = getelementptr inbounds nuw %union.ListCell, ptr %.val34, i64 %indvars.iv
  %22 = load ptr, ptr %21, align 8
  %23 = getelementptr inbounds nuw i8, ptr %22, i64 8
  %24 = load ptr, ptr %23, align 8
  %.not33 = icmp eq ptr %24, null
  br i1 %.not33, label %30, label %25

25:                                               ; preds = %20
  %26 = load i32, ptr %10, align 8
  %27 = sext i32 %26 to i64
  %28 = shl nsw i64 %27, 4
  %.idx = mul nuw nsw i64 %indvars.iv, 100
  %gep = getelementptr i8, ptr %invariant.gep, i64 %28
  %29 = getelementptr i8, ptr %gep, i64 %.idx
  tail call void @namestrcpy(ptr noundef nonnull %29, ptr noundef nonnull %24) #8
  br label %30

30:                                               ; preds = %25, %20
  %indvars.iv.next = add nuw nsw i64 %indvars.iv, 1
  %exitcond.not = icmp eq i64 %indvars.iv.next, %wide.trip.count
  br i1 %exitcond.not, label %._crit_edge, label %20, !llvm.loop !18

._crit_edge:                                      ; preds = %30, %.preheader
  %31 = getelementptr inbounds nuw i8, ptr %10, i64 4
  store i32 2249, ptr %31, align 4
  %32 = getelementptr inbounds nuw i8, ptr %10, i64 8
  store i32 -1, ptr %32, align 8
  br label %55

.fold.split.i:                                    ; preds = %8, %8, %2, %2, %2, %2, %4
  %33 = icmp eq ptr %1, null
  br i1 %33, label %34, label %list_length.exit36

34:                                               ; preds = %.fold.split.i
  %35 = tail call zeroext i1 @errstart_cold(i32 noundef 21, ptr noundef null) #9
  tail call void @llvm.assume(i1 %35)
  %36 = tail call i32 @errcode(i32 noundef 67141764) #8
  %37 = tail call i32 (ptr, ...) @errmsg(ptr noundef nonnull @.str.18) #8
  tail call void @errfinish(ptr noundef nonnull @.str.1, i32 noundef 1955, ptr noundef nonnull @__func__.TypeGetTupleDesc) #8
  unreachable

list_length.exit36:                               ; preds = %.fold.split.i
  %38 = getelementptr inbounds nuw i8, ptr %1, i64 4
  %39 = load i32, ptr %38, align 4
  %.not = icmp eq i32 %39, 1
  br i1 %.not, label %44, label %40

40:                                               ; preds = %list_length.exit36
  %41 = tail call zeroext i1 @errstart_cold(i32 noundef 21, ptr noundef null) #9
  tail call void @llvm.assume(i1 %41)
  %42 = tail call i32 @errcode(i32 noundef 67141764) #8
  %43 = tail call i32 (ptr, ...) @errmsg(ptr noundef nonnull @.str.17) #8
  tail call void @errfinish(ptr noundef nonnull @.str.1, i32 noundef 1961, ptr noundef nonnull @__func__.TypeGetTupleDesc) #8
  unreachable

44:                                               ; preds = %list_length.exit36
  %45 = getelementptr i8, ptr %1, i64 16
  %.val = load ptr, ptr %45, align 8
  %46 = load ptr, ptr %.val, align 8
  %47 = getelementptr inbounds nuw i8, ptr %46, i64 8
  %48 = load ptr, ptr %47, align 8
  %49 = tail call ptr @CreateTemplateTupleDesc(i32 noundef 1) #8
  tail call void @TupleDescInitEntry(ptr noundef %49, i16 noundef signext 1, ptr noundef %48, i32 noundef %0, i32 noundef -1, i32 noundef 0) #8
  br label %55

get_type_func_class.exit:                         ; preds = %8
  %50 = tail call zeroext i1 @errstart_cold(i32 noundef 21, ptr noundef null) #9
  tail call void @llvm.assume(i1 %50)
  %51 = tail call i32 @errcode(i32 noundef 67141764) #8
  %52 = tail call i32 (ptr, ...) @errmsg(ptr noundef nonnull @.str.19) #8
  tail call void @errfinish(ptr noundef nonnull @.str.1, i32 noundef 1979, ptr noundef nonnull @__func__.TypeGetTupleDesc) #8
  unreachable

select.unfold:                                    ; preds = %4, %2, %8
  %53 = tail call zeroext i1 @errstart_cold(i32 noundef 21, ptr noundef null) #9
  tail call void @llvm.assume(i1 %53)
  %54 = tail call i32 (ptr, ...) @errmsg_internal(ptr noundef nonnull @.str.20) #8
  tail call void @errfinish(ptr noundef nonnull @.str.1, i32 noundef 1984, ptr noundef nonnull @__func__.TypeGetTupleDesc) #8
  unreachable

55:                                               ; preds = %9, %._crit_edge, %44
  %.0 = phi ptr [ %10, %._crit_edge ], [ %10, %9 ], [ %49, %44 ]
  ret ptr %.0
}